target datalayout = "e-m:e-p270:32:32-p271:32:32-p272:64:64-i64:64-i128:128-f80:128-n8:16:32:64-S128"
target triple = "x86_64-pc-linux-gnu"

%struct.DecodedFrames = type { ptr, i64, i64 }
%struct.FrameThreadContext = type { ptr, ptr, i32, %union.pthread_mutex_t, %union.pthread_mutex_t, %union.pthread_mutex_t, %union.pthread_cond_t, i32, %struct.DecodedFrames, i32, ptr, i32, i32, ptr, ptr, ptr }
%union.pthread_mutex_t = type { %struct.__pthread_mutex_s }
%struct.__pthread_mutex_s = type { i32, i32, i32, i32, i32, i16, i16, %struct.__pthread_internal_list }
%struct.__pthread_internal_list = type { ptr, ptr }
%union.pthread_cond_t = type { %struct.__pthread_cond_s }
%struct.__pthread_cond_s = type { %union.__atomic_wide_counter, %union.__atomic_wide_counter, [2 x i32], [2 x i32], i32, i32, [2 x i32] }
%union.__atomic_wide_counter = type { i64 }

@.str.2 = private unnamed_addr constant [30 x i8] c"Assertion %s failed at %s:%d\0A\00", align 1
@.str.4 = private unnamed_addr constant [27 x i8] c"libavcodec/pthread_frame.c\00", align 1
@.str.8 = private unnamed_addr constant [17 x i8] c"fctx->async_lock\00", align 1

; Function Attrs: nounwind uwtable
define internal void @async_unlock(ptr noundef %0) #0 {
  %2 = alloca ptr, align 8
  store ptr %0, ptr %2, align 8, !tbaa !37
  %3 = load ptr, ptr %2, align 8, !tbaa !37
  %4 = getelementptr inbounds nuw %struct.FrameThreadContext, ptr %3, i32 0, i32 5
  %5 = call i32 @pthread_mutex_lock(ptr noundef %4) #9
  br label %6

6:                                                ; preds = %1
  %7 = load ptr, ptr %2, align 8, !tbaa !37
  %8 = getelementptr inbounds nuw %struct.FrameThreadContext, ptr %7, i32 0, i32 7
  %9 = load i32, ptr %8, align 8, !tbaa !63
  %10 = icmp ne i32 %9, 0
  br i1 %10, label %12, label %11

11:                                               ; preds = %6
  call void (ptr, i32, ptr, ...) @av_log(ptr noundef null, i32 noundef 0, ptr noundef @.str.2, ptr noundef @.str.8, ptr noundef @.str.4, i32 noundef 178)
  call void @abort() #10
  unreachable

12:                                               ; preds = %6
  br label %13

13:                                               ; preds = %12
  %14 = load ptr, ptr %2, align 8, !tbaa !37
  %15 = getelementptr inbounds nuw %struct.FrameThreadContext, ptr %14, i32 0, i32 7
  store i32 0, ptr %15, align 8, !tbaa !63
  %16 = load ptr, ptr %2, align 8, !tbaa !37
  %17 = getelementptr inbounds nuw %struct.FrameThreadContext, ptr %16, i32 0, i32 6
  %18 = call i32 @pthread_cond_broadcast(ptr noundef %17) #9
  %19 = load ptr, ptr %2, align 8, !tbaa !37
  %20 = getelementptr inbounds nuw %struct.FrameThreadContext, ptr %19, i32 0, i32 5
  %21 = call i32 @pthread_mutex_unlock(ptr noundef %20) #9
  ret void
}