; Function Attrs: nounwind uwtable
define internal fastcc void @async_unlock(ptr noundef %0) unnamed_addr #0 {
  %2 = getelementptr inbounds nuw i8, ptr %0, i64 104
  %3 = tail call i32 @pthread_mutex_lock(ptr noundef nonnull %2) #11
  %4 = getelementptr inbounds nuw i8, ptr %0, i64 192
  %5 = load i32, ptr %4, align 8, !tbaa !34
  %.not = icmp eq i32 %5, 0
  br i1 %.not, label %6, label %7

6:                                                ; preds = %1
  tail call void (ptr, i32, ptr, ...) @av_log(ptr noundef null, i32 noundef 0, ptr noundef nonnull @.str.2, ptr noundef nonnull @.str.8, ptr noundef nonnull @.str.4, i32 noundef 178) #11
  tail call void @abort() #12
  unreachable

7:                                                ; preds = %1
  store i32 0, ptr %4, align 8, !tbaa !34
  %8 = getelementptr inbounds nuw i8, ptr %0, i64 144
  %9 = tail call i32 @pthread_cond_broadcast(ptr noundef nonnull %8) #11
  %10 = tail call i32 @pthread_mutex_unlock(ptr noundef nonnull %2) #11
  ret void
}